target datalayout = "e-m:e-p270:32:32-p271:32:32-p272:64:64-i64:64-i128:128-f80:128-n8:16:32:64-S128"
target triple = "x86_64-pc-linux-gnu"

; Function Attrs: inlinehint mustprogress nounwind uwtable
define linkonce_odr dso_local noundef float @_ZSt4sqrtf(float noundef %0) #5 comdat {
  %2 = alloca float, align 4
  store float %0, ptr %2, align 4, !tbaa !14
  %3 = load float, ptr %2, align 4, !tbaa !14
  %4 = call float @sqrtf(float noundef %3) #8, !tbaa !9
  ret float %4
}

; Function Attrs: mustprogress uwtable
define dso_local noundef i32 @_Z7SolveP2Pfff(ptr noundef %0, float noundef %1, float noundef %2) #2 {
  %4 = alloca i32, align 4
  %5 = alloca ptr, align 8
  %6 = alloca float, align 4
  %7 = alloca float, align 4
  %8 = alloca float, align 4
  %9 = alloca i32, align 4
  store ptr %0, ptr %5, align 8, !tbaa !12
  store float %1, ptr %6, align 4, !tbaa !14
  store float %2, ptr %7, align 4, !tbaa !14
  call void @llvm.lifetime.start.p0(i64 4, ptr %8) #8
  %10 = load float, ptr %6, align 4, !tbaa !14
  %11 = fpext float %10 to double
  %12 = fmul double 2.500000e-01, %11
  %13 = load float, ptr %6, align 4, !tbaa !14
  %14 = fpext float %13 to double
  %15 = load float, ptr %7, align 4, !tbaa !14
  %16 = fpext float %15 to double
  %17 = fneg double %16
  %18 = call double @llvm.fmuladd.f64(double %12, double %14, double %17)
  %19 = fptrunc double %18 to float
  store float %19, ptr %8, align 4, !tbaa !14
  %20 = load float, ptr %8, align 4, !tbaa !14
  %21 = fcmp oge float %20, 0.000000e+00
  br i1 %21, label %22, label %42

22:                                               ; preds = %3
  %23 = load float, ptr %8, align 4, !tbaa !14
  %24 = call noundef float @_ZSt4sqrtf(float noundef %23)
  store float %24, ptr %8, align 4, !tbaa !14
  %25 = load float, ptr %6, align 4, !tbaa !14
  %26 = fpext float %25 to double
  %27 = load float, ptr %8, align 4, !tbaa !14
  %28 = fpext float %27 to double
  %29 = call double @llvm.fmuladd.f64(double -5.000000e-01, double %26, double %28)
  %30 = fptrunc double %29 to float
  %31 = load ptr, ptr %5, align 8, !tbaa !12
  %32 = getelementptr inbounds float, ptr %31, i64 0
  store float %30, ptr %32, align 4, !tbaa !14
  %33 = load float, ptr %6, align 4, !tbaa !14
  %34 = fpext float %33 to double
  %35 = load float, ptr %8, align 4, !tbaa !14
  %36 = fpext float %35 to double
  %37 = fneg double %36
  %38 = call double @llvm.fmuladd.f64(double -5.000000e-01, double %34, double %37)
  %39 = fptrunc double %38 to float
  %40 = load ptr, ptr %5, align 8, !tbaa !12
  %41 = getelementptr inbounds float, ptr %40, i64 1
  store float %39, ptr %41, align 4, !tbaa !14
  store i32 2, ptr %4, align 4
  store i32 1, ptr %9, align 4
  br label %54

42:                                               ; preds = %3
  %43 = load float, ptr %6, align 4, !tbaa !14
  %44 = fpext float %43 to double
  %45 = fmul double -5.000000e-01, %44
  %46 = fptrunc double %45 to float
  %47 = load ptr, ptr %5, align 8, !tbaa !12
  %48 = getelementptr inbounds float, ptr %47, i64 0
  store float %46, ptr %48, align 4, !tbaa !14
  %49 = load float, ptr %8, align 4, !tbaa !14
  %50 = fneg float %49
  %51 = call noundef float @_ZSt4sqrtf(float noundef %50)
  %52 = load ptr, ptr %5, align 8, !tbaa !12
  %53 = getelementptr inbounds float, ptr %52, i64 1
  store float %51, ptr %53, align 4, !tbaa !14
  store i32 0, ptr %4, align 4
  store i32 1, ptr %9, align 4
  br label %54

54:                                               ; preds = %42, %22
  call void @llvm.lifetime.end.p0(i64 4, ptr %8) #8
  %55 = load i32, ptr %4, align 4
  ret i32 %55
}