; Function Attrs: mustprogress nofree nounwind willreturn memory(write) uwtable
define dso_local noundef range(i32 0, 3) i32 @_Z7SolveP2Pfff(ptr noundef writeonly captures(none) initializes((0, 8)) %0, float noundef %1, float noundef %2) local_unnamed_addr #0 {
  %4 = fpext float %1 to double
  %5 = fmul double %4, 2.500000e-01
  %6 = fpext float %2 to double
  %7 = fneg double %6
  %8 = tail call double @llvm.fmuladd.f64(double %5, double %4, double %7)
  %9 = fptrunc double %8 to float
  %10 = fcmp ult float %9, 0.000000e+00
  br i1 %10, label %19, label %11

11:                                               ; preds = %3
  %12 = tail call noundef float @sqrtf(float noundef %9) #7, !tbaa !4
  %13 = fpext float %12 to double
  %14 = tail call double @llvm.fmuladd.f64(double %4, double -5.000000e-01, double %13)
  %15 = fptrunc double %14 to float
  %16 = fneg double %13
  %17 = tail call double @llvm.fmuladd.f64(double %4, double -5.000000e-01, double %16)
  %18 = fptrunc double %17 to float
  br label %23

19:                                               ; preds = %3
  %20 = fmul float %1, -5.000000e-01
  %21 = fneg float %9
  %22 = tail call noundef float @sqrtf(float noundef %21) #7, !tbaa !4
  br label %23

23:                                               ; preds = %19, %11
  %.sink16 = phi float [ %20, %19 ], [ %15, %11 ]
  %.sink = phi float [ %22, %19 ], [ %18, %11 ]
  %.0 = phi i32 [ 0, %19 ], [ 2, %11 ]
  store float %.sink16, ptr %0, align 4, !tbaa !8
  %24 = getelementptr inbounds nuw i8, ptr %0, i64 4
  store float %.sink, ptr %24, align 4, !tbaa !8
  ret i32 %.0
}